target datalayout = "e-m:e-p270:32:32-p271:32:32-p272:64:64-i64:64-i128:128-f80:128-n8:16:32:64-S128"
target triple = "x86_64-pc-linux-gnu"

%struct.archive_read = type { %struct.archive, ptr, i32, i64, i64, %struct.archive_read_client, [16 x %struct.archive_read_filter_bidder], ptr, i32, i64, i32, i32, [16 x %struct.archive_format_descriptor], ptr, ptr, ptr, %struct.anon }
%struct.archive = type { i32, i32, ptr, i32, ptr, i32, i32, ptr, %struct.archive_string, ptr, i32, i32, ptr, ptr, i64, i64, i64, i8, i64 }
%struct.archive_string = type { ptr, i64, i64 }
%struct.archive_read_client = type { ptr, ptr, ptr, ptr, ptr, ptr, i32, i32, i64, ptr }
%struct.archive_read_filter_bidder = type { ptr, ptr, ptr }
%struct.archive_format_descriptor = type { ptr, ptr, ptr, ptr, ptr, ptr, ptr, ptr, ptr, ptr, ptr }
%struct.anon = type { ptr, ptr, i32, ptr, ptr }
%struct.tar = type { %struct.archive_string, %struct.archive_string, %struct.archive_string, %struct.archive_string, %struct.archive_string, %struct.archive_string, i32, i64, i64, i64, i64, i64, ptr, ptr, i64, i64, i32, i32, i8, i8, %struct.archive_string, ptr, ptr, ptr, ptr, i32, i32, i32, i32, i32 }
%struct.sparse_block = type { ptr, i64, i64, i32 }

@.str.132 = private unnamed_addr constant [50 x i8] c"Truncated tar archive detected while reading data\00", align 1

; Function Attrs: nounwind uwtable
define internal i32 @archive_read_format_tar_read_data(ptr noundef %0, ptr noundef %1, ptr noundef %2, ptr noundef %3) #0 {
  %5 = alloca i32, align 4
  %6 = alloca ptr, align 8
  %7 = alloca ptr, align 8
  %8 = alloca ptr, align 8
  %9 = alloca ptr, align 8
  %10 = alloca i64, align 8
  %11 = alloca ptr, align 8
  %12 = alloca ptr, align 8
  %13 = alloca i32, align 4
  store ptr %0, ptr %6, align 8, !tbaa !11
  store ptr %1, ptr %7, align 8, !tbaa !65
  store ptr %2, ptr %8, align 8, !tbaa !66
  store ptr %3, ptr %9, align 8, !tbaa !66
  call void @llvm.lifetime.start.p0(i64 8, ptr %10) #10
  call void @llvm.lifetime.start.p0(i64 8, ptr %11) #10
  call void @llvm.lifetime.start.p0(i64 8, ptr %12) #10
  %14 = load ptr, ptr %6, align 8, !tbaa !11
  %15 = getelementptr inbounds nuw %struct.archive_read, ptr %14, i32 0, i32 13
  %16 = load ptr, ptr %15, align 8, !tbaa !20
  %17 = getelementptr inbounds nuw %struct.archive_format_descriptor, ptr %16, i32 0, i32 0
  %18 = load ptr, ptr %17, align 8, !tbaa !36
  store ptr %18, ptr %11, align 8, !tbaa !13
  br label %19

19:                                               ; preds = %156, %4
  br label %20

20:                                               ; preds = %34, %19
  %21 = load ptr, ptr %11, align 8, !tbaa !13
  %22 = getelementptr inbounds nuw %struct.tar, ptr %21, i32 0, i32 12
  %23 = load ptr, ptr %22, align 8, !tbaa !52
  %24 = icmp ne ptr %23, null
  br i1 %24, label %25, label %32

25:                                               ; preds = %20
  %26 = load ptr, ptr %11, align 8, !tbaa !13
  %27 = getelementptr inbounds nuw %struct.tar, ptr %26, i32 0, i32 12
  %28 = load ptr, ptr %27, align 8, !tbaa !52
  %29 = getelementptr inbounds nuw %struct.sparse_block, ptr %28, i32 0, i32 2
  %30 = load i64, ptr %29, align 8, !tbaa !58
  %31 = icmp eq i64 %30, 0
  br label %32

32:                                               ; preds = %25, %20
  %33 = phi i1 [ false, %20 ], [ %31, %25 ]
  br i1 %33, label %34, label %44

34:                                               ; preds = %32
  %35 = load ptr, ptr %11, align 8, !tbaa !13
  %36 = getelementptr inbounds nuw %struct.tar, ptr %35, i32 0, i32 12
  %37 = load ptr, ptr %36, align 8, !tbaa !52
  store ptr %37, ptr %12, align 8, !tbaa !54
  %38 = load ptr, ptr %12, align 8, !tbaa !54
  %39 = getelementptr inbounds nuw %struct.sparse_block, ptr %38, i32 0, i32 0
  %40 = load ptr, ptr %39, align 8, !tbaa !59
  %41 = load ptr, ptr %11, align 8, !tbaa !13
  %42 = getelementptr inbounds nuw %struct.tar, ptr %41, i32 0, i32 12
  store ptr %40, ptr %42, align 8, !tbaa !52
  %43 = load ptr, ptr %12, align 8, !tbaa !54
  call void @free(ptr noundef %43) #10
  br label %20, !llvm.loop !68

44:                                               ; preds = %32
  %45 = load ptr, ptr %11, align 8, !tbaa !13
  %46 = getelementptr inbounds nuw %struct.tar, ptr %45, i32 0, i32 10
  %47 = load i64, ptr %46, align 8, !tbaa !69
  %48 = icmp ne i64 %47, 0
  br i1 %48, label %49, label %57

49:                                               ; preds = %44
  %50 = load ptr, ptr %6, align 8, !tbaa !11
  %51 = load ptr, ptr %11, align 8, !tbaa !13
  %52 = getelementptr inbounds nuw %struct.tar, ptr %51, i32 0, i32 10
  %53 = load i64, ptr %52, align 8, !tbaa !69
  %54 = call i64 @__archive_read_consume(ptr noundef %50, i64 noundef %53)
  %55 = load ptr, ptr %11, align 8, !tbaa !13
  %56 = getelementptr inbounds nuw %struct.tar, ptr %55, i32 0, i32 10
  store i64 0, ptr %56, align 8, !tbaa !69
  br label %57

57:                                               ; preds = %49, %44
  %58 = load ptr, ptr %11, align 8, !tbaa !13
  %59 = getelementptr inbounds nuw %struct.tar, ptr %58, i32 0, i32 12
  %60 = load ptr, ptr %59, align 8, !tbaa !52
  %61 = icmp eq ptr %60, null
  br i1 %61, label %67, label %62

62:                                               ; preds = %57
  %63 = load ptr, ptr %11, align 8, !tbaa !13
  %64 = getelementptr inbounds nuw %struct.tar, ptr %63, i32 0, i32 7
  %65 = load i64, ptr %64, align 8, !tbaa !53
  %66 = icmp eq i64 %65, 0
  br i1 %66, label %67, label %84

67:                                               ; preds = %62, %57
  %68 = load ptr, ptr %6, align 8, !tbaa !11
  %69 = load ptr, ptr %11, align 8, !tbaa !13
  %70 = getelementptr inbounds nuw %struct.tar, ptr %69, i32 0, i32 9
  %71 = load i64, ptr %70, align 8, !tbaa !64
  %72 = call i64 @__archive_read_consume(ptr noundef %68, i64 noundef %71)
  %73 = icmp slt i64 %72, 0
  br i1 %73, label %74, label %75

74:                                               ; preds = %67
  store i32 -30, ptr %5, align 4
  store i32 1, ptr %13, align 4
  br label %157

75:                                               ; preds = %67
  %76 = load ptr, ptr %11, align 8, !tbaa !13
  %77 = getelementptr inbounds nuw %struct.tar, ptr %76, i32 0, i32 9
  store i64 0, ptr %77, align 8, !tbaa !64
  %78 = load ptr, ptr %7, align 8, !tbaa !65
  store ptr null, ptr %78, align 8, !tbaa !65
  %79 = load ptr, ptr %8, align 8, !tbaa !66
  store i64 0, ptr %79, align 8, !tbaa !46
  %80 = load ptr, ptr %11, align 8, !tbaa !13
  %81 = getelementptr inbounds nuw %struct.tar, ptr %80, i32 0, i32 11
  %82 = load i64, ptr %81, align 8, !tbaa !48
  %83 = load ptr, ptr %9, align 8, !tbaa !66
  store i64 %82, ptr %83, align 8, !tbaa !46
  store i32 1, ptr %5, align 4
  store i32 1, ptr %13, align 4
  br label %157

84:                                               ; preds = %62
  %85 = load ptr, ptr %6, align 8, !tbaa !11
  %86 = call ptr @__archive_read_ahead(ptr noundef %85, i64 noundef 1, ptr noundef %10)
  %87 = load ptr, ptr %7, align 8, !tbaa !65
  store ptr %86, ptr %87, align 8, !tbaa !65
  %88 = load ptr, ptr %7, align 8, !tbaa !65
  %89 = load ptr, ptr %88, align 8, !tbaa !65
  %90 = icmp eq ptr %89, null
  br i1 %90, label %91, label %94

91:                                               ; preds = %84
  %92 = load ptr, ptr %6, align 8, !tbaa !11
  %93 = getelementptr inbounds nuw %struct.archive_read, ptr %92, i32 0, i32 0
  call void (ptr, i32, ptr, ...) @archive_set_error(ptr noundef %93, i32 noundef -1, ptr noundef @.str.132)
  store i32 -30, ptr %5, align 4
  store i32 1, ptr %13, align 4
  br label %157

94:                                               ; preds = %84
  %95 = load i64, ptr %10, align 8, !tbaa !46
  %96 = load ptr, ptr %11, align 8, !tbaa !13
  %97 = getelementptr inbounds nuw %struct.tar, ptr %96, i32 0, i32 7
  %98 = load i64, ptr %97, align 8, !tbaa !53
  %99 = icmp sgt i64 %95, %98
  br i1 %99, label %100, label %104

100:                                              ; preds = %94
  %101 = load ptr, ptr %11, align 8, !tbaa !13
  %102 = getelementptr inbounds nuw %struct.tar, ptr %101, i32 0, i32 7
  %103 = load i64, ptr %102, align 8, !tbaa !53
  store i64 %103, ptr %10, align 8, !tbaa !46
  br label %104

104:                                              ; preds = %100, %94
  %105 = load ptr, ptr %11, align 8, !tbaa !13
  %106 = getelementptr inbounds nuw %struct.tar, ptr %105, i32 0, i32 12
  %107 = load ptr, ptr %106, align 8, !tbaa !52
  %108 = getelementptr inbounds nuw %struct.sparse_block, ptr %107, i32 0, i32 2
  %109 = load i64, ptr %108, align 8, !tbaa !58
  %110 = load i64, ptr %10, align 8, !tbaa !46
  %111 = icmp slt i64 %109, %110
  br i1 %111, label %112, label %118

112:                                              ; preds = %104
  %113 = load ptr, ptr %11, align 8, !tbaa !13
  %114 = getelementptr inbounds nuw %struct.tar, ptr %113, i32 0, i32 12
  %115 = load ptr, ptr %114, align 8, !tbaa !52
  %116 = getelementptr inbounds nuw %struct.sparse_block, ptr %115, i32 0, i32 2
  %117 = load i64, ptr %116, align 8, !tbaa !58
  store i64 %117, ptr %10, align 8, !tbaa !46
  br label %118

118:                                              ; preds = %112, %104
  %119 = load i64, ptr %10, align 8, !tbaa !46
  %120 = load ptr, ptr %8, align 8, !tbaa !66
  store i64 %119, ptr %120, align 8, !tbaa !46
  %121 = load ptr, ptr %11, align 8, !tbaa !13
  %122 = getelementptr inbounds nuw %struct.tar, ptr %121, i32 0, i32 12
  %123 = load ptr, ptr %122, align 8, !tbaa !52
  %124 = getelementptr inbounds nuw %struct.sparse_block, ptr %123, i32 0, i32 1
  %125 = load i64, ptr %124, align 8, !tbaa !57
  %126 = load ptr, ptr %9, align 8, !tbaa !66
  store i64 %125, ptr %126, align 8, !tbaa !46
  %127 = load i64, ptr %10, align 8, !tbaa !46
  %128 = load ptr, ptr %11, align 8, !tbaa !13
  %129 = getelementptr inbounds nuw %struct.tar, ptr %128, i32 0, i32 12
  %130 = load ptr, ptr %129, align 8, !tbaa !52
  %131 = getelementptr inbounds nuw %struct.sparse_block, ptr %130, i32 0, i32 2
  %132 = load i64, ptr %131, align 8, !tbaa !58
  %133 = sub nsw i64 %132, %127
  store i64 %133, ptr %131, align 8, !tbaa !58
  %134 = load i64, ptr %10, align 8, !tbaa !46
  %135 = load ptr, ptr %11, align 8, !tbaa !13
  %136 = getelementptr inbounds nuw %struct.tar, ptr %135, i32 0, i32 12
  %137 = load ptr, ptr %136, align 8, !tbaa !52
  %138 = getelementptr inbounds nuw %struct.sparse_block, ptr %137, i32 0, i32 1
  %139 = load i64, ptr %138, align 8, !tbaa !57
  %140 = add nsw i64 %139, %134
  store i64 %140, ptr %138, align 8, !tbaa !57
  %141 = load i64, ptr %10, align 8, !tbaa !46
  %142 = load ptr, ptr %11, align 8, !tbaa !13
  %143 = getelementptr inbounds nuw %struct.tar, ptr %142, i32 0, i32 7
  %144 = load i64, ptr %143, align 8, !tbaa !53
  %145 = sub nsw i64 %144, %141
  store i64 %145, ptr %143, align 8, !tbaa !53
  %146 = load i64, ptr %10, align 8, !tbaa !46
  %147 = load ptr, ptr %11, align 8, !tbaa !13
  %148 = getelementptr inbounds nuw %struct.tar, ptr %147, i32 0, i32 10
  store i64 %146, ptr %148, align 8, !tbaa !69
  %149 = load ptr, ptr %11, align 8, !tbaa !13
  %150 = getelementptr inbounds nuw %struct.tar, ptr %149, i32 0, i32 12
  %151 = load ptr, ptr %150, align 8, !tbaa !52
  %152 = getelementptr inbounds nuw %struct.sparse_block, ptr %151, i32 0, i32 3
  %153 = load i32, ptr %152, align 8, !tbaa !55
  %154 = icmp ne i32 %153, 0
  br i1 %154, label %156, label %155

155:                                              ; preds = %118
  store i32 0, ptr %5, align 4
  store i32 1, ptr %13, align 4
  br label %157

156:                                              ; preds = %118
  br label %19

157:                                              ; preds = %155, %91, %75, %74
  call void @llvm.lifetime.end.p0(i64 8, ptr %12) #10
  call void @llvm.lifetime.end.p0(i64 8, ptr %11) #10
  call void @llvm.lifetime.end.p0(i64 8, ptr %10) #10
  %158 = load i32, ptr %5, align 4
  ret i32 %158
}