; Function Attrs: nounwind uwtable
define internal range(i32 -30, 2) i32 @archive_read_format_tar_read_data(ptr noundef %0, ptr noundef writeonly captures(none) %1, ptr noundef writeonly captures(none) %2, ptr noundef writeonly captures(none) %3) #0 {
  %5 = alloca i64, align 8
  call void @llvm.lifetime.start.p0(i64 8, ptr nonnull %5) #13
  %6 = getelementptr inbounds nuw i8, ptr %0, i64 2072
  %7 = load ptr, ptr %6, align 8, !tbaa !17
  %8 = load ptr, ptr %7, align 8, !tbaa !36
  %9 = getelementptr inbounds nuw i8, ptr %8, i64 192
  %10 = getelementptr inbounds nuw i8, ptr %8, i64 176
  %11 = getelementptr inbounds nuw i8, ptr %8, i64 152
  %.pre = load ptr, ptr %9, align 8, !tbaa !48
  br label %12

12:                                               ; preds = %55, %4
  %13 = phi ptr [ %50, %55 ], [ %.pre, %4 ]
  %.not42 = icmp eq ptr %13, null
  br i1 %.not42, label %.critedge, label %.lr.ph

.lr.ph:                                           ; preds = %12, %18
  %14 = phi ptr [ %20, %18 ], [ %13, %12 ]
  %15 = getelementptr inbounds nuw i8, ptr %14, i64 16
  %16 = load i64, ptr %15, align 8, !tbaa !82
  %17 = icmp eq i64 %16, 0
  br i1 %17, label %18, label %.critedge

18:                                               ; preds = %.lr.ph
  %19 = load ptr, ptr %14, align 8, !tbaa !49
  store ptr %19, ptr %9, align 8, !tbaa !48
  call void @free(ptr noundef nonnull %14) #13
  %20 = load ptr, ptr %9, align 8, !tbaa !48
  %.not = icmp eq ptr %20, null
  br i1 %.not, label %.critedge, label %.lr.ph, !llvm.loop !85

.critedge:                                        ; preds = %.lr.ph, %18, %12
  %21 = phi ptr [ null, %12 ], [ %14, %.lr.ph ], [ null, %18 ]
  %22 = load i64, ptr %10, align 8, !tbaa !86
  %.not40 = icmp eq i64 %22, 0
  br i1 %.not40, label %25, label %23

23:                                               ; preds = %.critedge
  %24 = call i64 @__archive_read_consume(ptr noundef %0, i64 noundef %22) #13
  store i64 0, ptr %10, align 8, !tbaa !86
  %.pre45 = load ptr, ptr %9, align 8, !tbaa !48
  br label %25

25:                                               ; preds = %23, %.critedge
  %26 = phi ptr [ %.pre45, %23 ], [ %21, %.critedge ]
  %27 = icmp eq ptr %26, null
  br i1 %27, label %31, label %28

28:                                               ; preds = %25
  %29 = load i64, ptr %11, align 8, !tbaa !73
  %30 = icmp eq i64 %29, 0
  br i1 %30, label %31, label %39

31:                                               ; preds = %28, %25
  %32 = getelementptr inbounds nuw i8, ptr %8, i64 168
  %33 = load i64, ptr %32, align 8, !tbaa !74
  %34 = call i64 @__archive_read_consume(ptr noundef %0, i64 noundef %33) #13
  %35 = icmp slt i64 %34, 0
  br i1 %35, label %.loopexit, label %36

36:                                               ; preds = %31
  store i64 0, ptr %32, align 8, !tbaa !74
  store ptr null, ptr %1, align 8, !tbaa !87
  store i64 0, ptr %2, align 8, !tbaa !45
  %37 = getelementptr inbounds nuw i8, ptr %8, i64 184
  %38 = load i64, ptr %37, align 8, !tbaa !53
  store i64 %38, ptr %3, align 8, !tbaa !45
  br label %.loopexit

39:                                               ; preds = %28
  %40 = call ptr @__archive_read_ahead(ptr noundef %0, i64 noundef 1, ptr noundef nonnull %5) #13
  store ptr %40, ptr %1, align 8, !tbaa !87
  %41 = icmp eq ptr %40, null
  br i1 %41, label %42, label %43

42:                                               ; preds = %39
  call void (ptr, i32, ptr, ...) @archive_set_error(ptr noundef %0, i32 noundef -1, ptr noundef nonnull @.str.132) #13
  br label %.loopexit

43:                                               ; preds = %39
  %44 = load i64, ptr %5, align 8, !tbaa !45
  %45 = load i64, ptr %11, align 8, !tbaa !73
  %46 = icmp sgt i64 %44, %45
  br i1 %46, label %47, label %48

47:                                               ; preds = %43
  store i64 %45, ptr %5, align 8, !tbaa !45
  br label %48

48:                                               ; preds = %47, %43
  %49 = phi i64 [ %45, %47 ], [ %44, %43 ]
  %50 = load ptr, ptr %9, align 8, !tbaa !48
  %51 = getelementptr inbounds nuw i8, ptr %50, i64 16
  %52 = load i64, ptr %51, align 8, !tbaa !82
  %53 = icmp slt i64 %52, %49
  br i1 %53, label %54, label %55

54:                                               ; preds = %48
  store i64 %52, ptr %5, align 8, !tbaa !45
  br label %55

55:                                               ; preds = %54, %48
  %56 = phi i64 [ %52, %54 ], [ %49, %48 ]
  store i64 %56, ptr %2, align 8, !tbaa !45
  %57 = getelementptr inbounds nuw i8, ptr %50, i64 8
  %58 = load i64, ptr %57, align 8, !tbaa !76
  store i64 %58, ptr %3, align 8, !tbaa !45
  %59 = load i64, ptr %51, align 8, !tbaa !82
  %60 = sub nsw i64 %59, %56
  store i64 %60, ptr %51, align 8, !tbaa !82
  %61 = add nsw i64 %58, %56
  store i64 %61, ptr %57, align 8, !tbaa !76
  %62 = load i64, ptr %11, align 8, !tbaa !73
  %63 = sub nsw i64 %62, %56
  store i64 %63, ptr %11, align 8, !tbaa !73
  store i64 %56, ptr %10, align 8, !tbaa !86
  %64 = getelementptr inbounds nuw i8, ptr %50, i64 24
  %65 = load i32, ptr %64, align 8, !tbaa !83
  %.not41 = icmp eq i32 %65, 0
  br i1 %.not41, label %.loopexit, label %12

.loopexit:                                        ; preds = %55, %31, %42, %36
  %.0 = phi i32 [ 1, %36 ], [ -30, %42 ], [ -30, %31 ], [ 0, %55 ]
  call void @llvm.lifetime.end.p0(i64 8, ptr nonnull %5) #13
  ret i32 %.0
}